ccopy_reg
_reconstructor
p0
(cpsychopy.data.experiment
ExperimentHandler
p1
c__builtin__
object
p2
Ntp3
Rp4
(dp5
S'originPath'
p6
V/Users/masayano/Downloads/Rating_Mac/rating.psyexp
p7
sS'dataFileName'
p8
V/Users/masayano/Downloads/Rating_Mac/data/_rating_2018_Jun_15_1224
p9
sS'runtimeInfo'
p10
NsS'name'
p11
S'rating'
p12
sS'dataNames'
p13
(lp14
S'rating1.response'
p15
aS'rating1.rt'
p16
asS'autoLog'
p17
I01
sS'extraInfo'
p18
(dp19
Vparticipant
p20
V
p21
sVgender
p22
g21
sS'frameRate'
p23
cnumpy.core.multiarray
scalar
p24
(cnumpy
dtype
p25
(S'f8'
p26
I0
I1
tp27
Rp28
(I3
S'<'
p29
NNNI-1
I-1
I0
tp30
bS'+D\xcdk\x98\x07N@'
p31
tp32
Rp33
sS'expName'
p34
g12
sVL1
p35
g21
sS'date'
p36
V2018_Jun_15_1224
p37
ssS'loopsUnfinished'
p38
(lp39
sS'saveWideText'
p40
I00
sS'thisEntry'
p41
(dp42
sS'version'
p43
S''
p44
sS'_paramNamesSoFar'
p45
(lp46
Vword
p47
aVsound
p48
asS'entries'
p49
(lp50
(dp51
g48
Vsound/cloud.wav
p52
sg16
F4.355
sg34
g12
sg47
Vcloud
p53
sg22
g21
sS'pract_trial.thisRepN'
p54
I0
sS'pract_trial.thisTrialN'
p55
I0
sS'pract_trial.thisIndex'
p56
g24
(g25
(S'i8'
p57
I0
I1
tp58
Rp59
(I3
S'<'
p60
NNNI-1
I-1
I0
tp61
bS'\x00\x00\x00\x00\x00\x00\x00\x00'
p62
tp63
Rp64
sg23
g33
sg15
I3
sg35
g21
sg36
g37
sg20
g21
sS'pract_trial.thisN'
p65
I0
sa(dp66
g48
Vsound/clout.wav
p67
sg16
F1.604
sg34
g12
sg47
Vclout
p68
sg22
g21
sS'pract_trial.thisRepN'
p69
I0
sS'pract_trial.thisTrialN'
p70
I1
sS'pract_trial.thisIndex'
p71
g24
(g59
S'\x01\x00\x00\x00\x00\x00\x00\x00'
p72
tp73
Rp74
sg23
g33
sg15
I4
sg35
g21
sg36
g37
sg20
g21
sS'pract_trial.thisN'
p75
I1
sasS'loops'
p76
(lp77
g0
(cpsychopy.data.trial
TrialHandler
p78
g2
Ntp79
Rp80
(dp81
S'origin'
p82
NsS'thisTrial'
p83
(lp84
sS'_exp'
p85
I4594116112
sg11
S'pract_trial'
p86
sg6
I-1
sS'thisRepN'
p87
I1
sg17
I01
sg18
g19
sS'data'
p88
g0
(cpsychopy.data.base
DataHandler
p89
c__builtin__
dict
p90
(dp91
S'ran'
p92
cnumpy.ma.core
_mareconstruct
p93
(cnumpy.ma.core
MaskedArray
p94
cnumpy
ndarray
p95
(I0
tp96
S'b'
p97
tp98
Rp99
(I1
(I2
I1
tp100
g25
(S'f4'
p101
I0
I1
tp102
Rp103
(I3
S'<'
p104
NNNI-1
I-1
I0
tp105
bI00
S'\x00\x00\x80?\x00\x00\x80?'
p106
S'\x00\x00'
p107
Ntp108
bsg16
g93
(g94
g95
g96
g97
tp109
Rp110
(I1
(I2
I1
tp111
g103
I00
S')\\\x8b@\xdfO\xcd?'
p112
S'\x00\x00'
p113
Ntp114
bsg15
g93
(g94
g95
g96
g97
tp115
Rp116
(I1
(I2
I1
tp117
g103
I00
S'\x00\x00@@\x00\x00\x80@'
p118
S'\x00\x00'
p119
Ntp120
bsS'order'
p121
g93
(g94
g95
g96
g97
tp122
Rp123
(I1
(I2
I1
tp124
g103
I00
S'\x00\x00\x00\x00\x00\x00\x80?'
p125
S'\x00\x00'
p126
Ntp127
bstp128
Rp129
(dp130
S'isNumeric'
p131
(dp132
g92
I01
sg16
I01
sg15
I01
sg121
I01
ssS'trials'
p133
g80
sS'dataTypes'
p134
(lp135
g92
ag121
ag15
ag16
asS'dataShape'
p136
(lp137
I2
aI1
asbsS'method'
p138
S'random'
p139
sS'sequenceIndices'
p140
cnumpy.core.multiarray
_reconstruct
p141
(g95
(I0
tp142
g97
tp143
Rp144
(I1
(I2
I1
tp145
g59
I00
S'\x00\x00\x00\x00\x00\x00\x00\x00\x01\x00\x00\x00\x00\x00\x00\x00'
p146
tp147
bsS'finished'
p148
I01
sS'nReps'
p149
I1
sS'nRemaining'
p150
I-1
sS'trialList'
p151
(lp152
ccollections
OrderedDict
p153
((lp154
(lp155
g47
ag53
aa(lp156
g48
ag52
aatp157
Rp158
ag153
((lp159
(lp160
g47
ag68
aa(lp161
g48
ag67
aatp162
Rp163
asS'seed'
p164
NsS'thisIndex'
p165
g74
sS'thisN'
p166
I2
sS'thisTrialN'
p167
I0
sS'nTotal'
p168
I2
sbasS'savePickle'
p169
I00
sb.